target datalayout = "e-m:e-p270:32:32-p271:32:32-p272:64:64-i64:64-i128:128-f80:128-n8:16:32:64-S128"
target triple = "x86_64-pc-linux-gnu"

%struct.sockaddr_storage = type { i16, [118 x i8], i64 }
%struct.sockaddr = type { i16, [14 x i8] }
%struct.group_source_req = type { i32, %struct.sockaddr_storage, %struct.sockaddr_storage }
%struct.ip_mreq_source = type { %struct.in_addr, %struct.in_addr, %struct.in_addr }
%struct.in_addr = type { i32 }
%struct.sockaddr_in = type { i16, i16, %struct.in_addr, [8 x i8] }

@.str.35 = private unnamed_addr constant [36 x i8] c"setsockopt(MCAST_JOIN_SOURCE_GROUP)\00", align 1
@.str.36 = private unnamed_addr constant [31 x i8] c"setsockopt(MCAST_BLOCK_SOURCE)\00", align 1
@.str.37 = private unnamed_addr constant [57 x i8] c"Source/block address %d is of incorrect protocol family\0A\00", align 1
@.str.38 = private unnamed_addr constant [37 x i8] c"setsockopt(IP_ADD_SOURCE_MEMBERSHIP)\00", align 1
@.str.39 = private unnamed_addr constant [28 x i8] c"setsockopt(IP_BLOCK_SOURCE)\00", align 1

; Function Attrs: nounwind uwtable
define internal i32 @udp_set_multicast_sources(ptr noundef %0, i32 noundef %1, ptr noundef %2, i32 noundef %3, ptr noundef %4, ptr noundef %5, i32 noundef %6, i32 noundef %7) #0 {
  %9 = alloca i32, align 4
  %10 = alloca ptr, align 8
  %11 = alloca i32, align 4
  %12 = alloca ptr, align 8
  %13 = alloca i32, align 4
  %14 = alloca ptr, align 8
  %15 = alloca ptr, align 8
  %16 = alloca i32, align 4
  %17 = alloca i32, align 4
  %18 = alloca i32, align 4
  %19 = alloca i32, align 4
  %20 = alloca %struct.group_source_req, align 8
  %21 = alloca i32, align 4
  %22 = alloca i32, align 4
  %23 = alloca %struct.ip_mreq_source, align 4
  store ptr %0, ptr %10, align 8, !tbaa !4
  store i32 %1, ptr %11, align 4, !tbaa !20
  store ptr %2, ptr %12, align 8, !tbaa !81
  store i32 %3, ptr %13, align 4, !tbaa !20
  store ptr %4, ptr %14, align 8, !tbaa !31
  store ptr %5, ptr %15, align 8, !tbaa !31
  store i32 %6, ptr %16, align 4, !tbaa !20
  store i32 %7, ptr %17, align 4, !tbaa !20
  call void @llvm.lifetime.start.p0(i64 4, ptr %18) #9
  %24 = load ptr, ptr %12, align 8, !tbaa !81
  %25 = getelementptr inbounds nuw %struct.sockaddr, ptr %24, i32 0, i32 0
  %26 = load i16, ptr %25, align 2, !tbaa !75
  %27 = zext i16 %26 to i32
  %28 = icmp ne i32 %27, 2
  br i1 %28, label %29, label %78

29:                                               ; preds = %8
  call void @llvm.lifetime.start.p0(i64 4, ptr %19) #9
  store i32 0, ptr %19, align 4, !tbaa !20
  br label %30

30:                                               ; preds = %73, %29
  %31 = load i32, ptr %19, align 4, !tbaa !20
  %32 = load i32, ptr %16, align 4, !tbaa !20
  %33 = icmp slt i32 %31, %32
  br i1 %33, label %34, label %76

34:                                               ; preds = %30
  call void @llvm.lifetime.start.p0(i64 264, ptr %20) #9
  call void @llvm.lifetime.start.p0(i64 4, ptr %21) #9
  %35 = load ptr, ptr %12, align 8, !tbaa !81
  %36 = getelementptr inbounds nuw %struct.sockaddr, ptr %35, i32 0, i32 0
  %37 = load i16, ptr %36, align 2, !tbaa !75
  %38 = zext i16 %37 to i32
  %39 = icmp eq i32 %38, 2
  %40 = select i1 %39, i32 0, i32 41
  store i32 %40, ptr %21, align 4, !tbaa !20
  %41 = getelementptr inbounds nuw %struct.group_source_req, ptr %20, i32 0, i32 0
  store i32 0, ptr %41, align 8, !tbaa !83
  %42 = getelementptr inbounds nuw %struct.group_source_req, ptr %20, i32 0, i32 1
  %43 = load ptr, ptr %12, align 8, !tbaa !81
  %44 = load i32, ptr %13, align 4, !tbaa !20
  %45 = sext i32 %44 to i64
  call void @llvm.memcpy.p0.p0.i64(ptr align 8 %42, ptr align 2 %43, i64 %45, i1 false)
  %46 = getelementptr inbounds nuw %struct.group_source_req, ptr %20, i32 0, i32 2
  %47 = load ptr, ptr %15, align 8, !tbaa !31
  %48 = load i32, ptr %19, align 4, !tbaa !20
  %49 = sext i32 %48 to i64
  %50 = getelementptr inbounds %struct.sockaddr_storage, ptr %47, i64 %49
  call void @llvm.memcpy.p0.p0.i64(ptr align 8 %46, ptr align 8 %50, i64 128, i1 false)
  %51 = load i32, ptr %11, align 4, !tbaa !20
  %52 = load i32, ptr %21, align 4, !tbaa !20
  %53 = load i32, ptr %17, align 4, !tbaa !20
  %54 = icmp ne i32 %53, 0
  %55 = select i1 %54, i32 46, i32 43
  %56 = call i32 @setsockopt(i32 noundef %51, i32 noundef %52, i32 noundef %55, ptr noundef %20, i32 noundef 264) #9
  %57 = icmp slt i32 %56, 0
  br i1 %57, label %58, label %69

58:                                               ; preds = %34
  %59 = load i32, ptr %17, align 4, !tbaa !20
  %60 = icmp ne i32 %59, 0
  br i1 %60, label %61, label %63

61:                                               ; preds = %58
  %62 = load ptr, ptr %10, align 8, !tbaa !4
  call void @ff_log_net_error(ptr noundef %62, i32 noundef 16, ptr noundef @.str.35)
  br label %65

63:                                               ; preds = %58
  %64 = load ptr, ptr %10, align 8, !tbaa !4
  call void @ff_log_net_error(ptr noundef %64, i32 noundef 16, ptr noundef @.str.36)
  br label %65

65:                                               ; preds = %63, %61
  %66 = call ptr @__errno_location() #11
  %67 = load i32, ptr %66, align 4, !tbaa !20
  %68 = sub nsw i32 0, %67
  store i32 %68, ptr %9, align 4
  store i32 1, ptr %22, align 4
  br label %70

69:                                               ; preds = %34
  store i32 0, ptr %22, align 4
  br label %70

70:                                               ; preds = %69, %65
  call void @llvm.lifetime.end.p0(i64 4, ptr %21) #9
  call void @llvm.lifetime.end.p0(i64 264, ptr %20) #9
  %71 = load i32, ptr %22, align 4
  switch i32 %71, label %77 [
    i32 0, label %72
  ]

72:                                               ; preds = %70
  br label %73

73:                                               ; preds = %72
  %74 = load i32, ptr %19, align 4, !tbaa !20
  %75 = add nsw i32 %74, 1
  store i32 %75, ptr %19, align 4, !tbaa !20
  br label %30, !llvm.loop !85

76:                                               ; preds = %30
  store i32 0, ptr %9, align 4
  store i32 1, ptr %22, align 4
  br label %77

77:                                               ; preds = %76, %70
  call void @llvm.lifetime.end.p0(i64 4, ptr %19) #9
  br label %147

78:                                               ; preds = %8
  store i32 0, ptr %18, align 4, !tbaa !20
  br label %79

79:                                               ; preds = %143, %78
  %80 = load i32, ptr %18, align 4, !tbaa !20
  %81 = load i32, ptr %16, align 4, !tbaa !20
  %82 = icmp slt i32 %80, %81
  br i1 %82, label %83, label %146

83:                                               ; preds = %79
  call void @llvm.lifetime.start.p0(i64 12, ptr %23) #9
  %84 = load ptr, ptr %15, align 8, !tbaa !31
  %85 = load i32, ptr %18, align 4, !tbaa !20
  %86 = sext i32 %85 to i64
  %87 = getelementptr inbounds %struct.sockaddr_storage, ptr %84, i64 %86
  %88 = getelementptr inbounds nuw %struct.sockaddr_storage, ptr %87, i32 0, i32 0
  %89 = load i16, ptr %88, align 8, !tbaa !86
  %90 = zext i16 %89 to i32
  %91 = icmp ne i32 %90, 2
  br i1 %91, label %92, label %96

92:                                               ; preds = %83
  %93 = load ptr, ptr %10, align 8, !tbaa !4
  %94 = load i32, ptr %18, align 4, !tbaa !20
  %95 = add nsw i32 %94, 1
  call void (ptr, i32, ptr, ...) @av_log(ptr noundef %93, i32 noundef 16, ptr noundef @.str.37, i32 noundef %95)
  store i32 -22, ptr %9, align 4
  store i32 1, ptr %22, align 4
  br label %140

96:                                               ; preds = %83
  %97 = load ptr, ptr %12, align 8, !tbaa !81
  %98 = getelementptr inbounds nuw %struct.sockaddr_in, ptr %97, i32 0, i32 2
  %99 = getelementptr inbounds nuw %struct.in_addr, ptr %98, i32 0, i32 0
  %100 = load i32, ptr %99, align 4, !tbaa !87
  %101 = getelementptr inbounds nuw %struct.ip_mreq_source, ptr %23, i32 0, i32 0
  %102 = getelementptr inbounds nuw %struct.in_addr, ptr %101, i32 0, i32 0
  store i32 %100, ptr %102, align 4, !tbaa !90
  %103 = load ptr, ptr %14, align 8, !tbaa !31
  %104 = icmp ne ptr %103, null
  br i1 %104, label %105, label %109

105:                                              ; preds = %96
  %106 = getelementptr inbounds nuw %struct.ip_mreq_source, ptr %23, i32 0, i32 1
  %107 = load ptr, ptr %14, align 8, !tbaa !31
  %108 = getelementptr inbounds nuw %struct.sockaddr_in, ptr %107, i32 0, i32 2
  call void @llvm.memcpy.p0.p0.i64(ptr align 4 %106, ptr align 4 %108, i64 4, i1 false), !tbaa.struct !92
  br label %112

109:                                              ; preds = %96
  %110 = getelementptr inbounds nuw %struct.ip_mreq_source, ptr %23, i32 0, i32 1
  %111 = getelementptr inbounds nuw %struct.in_addr, ptr %110, i32 0, i32 0
  store i32 0, ptr %111, align 4, !tbaa !93
  br label %112

112:                                              ; preds = %109, %105
  %113 = load ptr, ptr %15, align 8, !tbaa !31
  %114 = load i32, ptr %18, align 4, !tbaa !20
  %115 = sext i32 %114 to i64
  %116 = getelementptr inbounds %struct.sockaddr_storage, ptr %113, i64 %115
  %117 = getelementptr inbounds nuw %struct.sockaddr_in, ptr %116, i32 0, i32 2
  %118 = getelementptr inbounds nuw %struct.in_addr, ptr %117, i32 0, i32 0
  %119 = load i32, ptr %118, align 4, !tbaa !87
  %120 = getelementptr inbounds nuw %struct.ip_mreq_source, ptr %23, i32 0, i32 2
  %121 = getelementptr inbounds nuw %struct.in_addr, ptr %120, i32 0, i32 0
  store i32 %119, ptr %121, align 4, !tbaa !94
  %122 = load i32, ptr %11, align 4, !tbaa !20
  %123 = load i32, ptr %17, align 4, !tbaa !20
  %124 = icmp ne i32 %123, 0
  %125 = select i1 %124, i32 39, i32 38
  %126 = call i32 @setsockopt(i32 noundef %122, i32 noundef 0, i32 noundef %125, ptr noundef %23, i32 noundef 12) #9
  %127 = icmp slt i32 %126, 0
  br i1 %127, label %128, label %139

128:                                              ; preds = %112
  %129 = load i32, ptr %17, align 4, !tbaa !20
  %130 = icmp ne i32 %129, 0
  br i1 %130, label %131, label %133

131:                                              ; preds = %128
  %132 = load ptr, ptr %10, align 8, !tbaa !4
  call void @ff_log_net_error(ptr noundef %132, i32 noundef 16, ptr noundef @.str.38)
  br label %135

133:                                              ; preds = %128
  %134 = load ptr, ptr %10, align 8, !tbaa !4
  call void @ff_log_net_error(ptr noundef %134, i32 noundef 16, ptr noundef @.str.39)
  br label %135

135:                                              ; preds = %133, %131
  %136 = call ptr @__errno_location() #11
  %137 = load i32, ptr %136, align 4, !tbaa !20
  %138 = sub nsw i32 0, %137
  store i32 %138, ptr %9, align 4
  store i32 1, ptr %22, align 4
  br label %140

139:                                              ; preds = %112
  store i32 0, ptr %22, align 4
  br label %140

140:                                              ; preds = %139, %135, %92
  call void @llvm.lifetime.end.p0(i64 12, ptr %23) #9
  %141 = load i32, ptr %22, align 4
  switch i32 %141, label %147 [
    i32 0, label %142
  ]

142:                                              ; preds = %140
  br label %143

143:                                              ; preds = %142
  %144 = load i32, ptr %18, align 4, !tbaa !20
  %145 = add nsw i32 %144, 1
  store i32 %145, ptr %18, align 4, !tbaa !20
  br label %79, !llvm.loop !95

146:                                              ; preds = %79
  store i32 0, ptr %9, align 4
  store i32 1, ptr %22, align 4
  br label %147

147:                                              ; preds = %146, %140, %77
  call void @llvm.lifetime.end.p0(i64 4, ptr %18) #9
  %148 = load i32, ptr %9, align 4
  ret i32 %148
}