; Function Attrs: nounwind uwtable
define internal fastcc range(i32 -2147483647, -2147483648) i32 @udp_set_multicast_sources(ptr noundef %0, i32 noundef range(i32 0, -2147483648) %1, ptr noundef readonly captures(none) %2, i32 noundef %3, ptr noundef readonly captures(address_is_null) %4, ptr noundef readonly captures(none) %5, i32 noundef range(i32 1, 0) %6, i32 noundef range(i32 0, 2) %7) unnamed_addr #0 {
  %9 = alloca %struct.group_source_req, align 8
  %10 = alloca %struct.ip_mreq_source, align 4
  %11 = load i16, ptr %2, align 2, !tbaa !49
  %.not = icmp eq i16 %11, 2
  %12 = icmp sgt i32 %6, 0
  br i1 %.not, label %.preheader, label %.preheader49

.preheader49:                                     ; preds = %8
  br i1 %12, label %.lr.ph, label %.loopexit

.lr.ph:                                           ; preds = %.preheader49
  %13 = getelementptr inbounds nuw i8, ptr %9, i64 8
  %14 = sext i32 %3 to i64
  %15 = getelementptr inbounds nuw i8, ptr %9, i64 136
  %.not43 = icmp eq i32 %7, 0
  %16 = select i1 %.not43, i32 43, i32 46
  %wide.trip.count = zext nneg i32 %6 to i64
  br label %31

.preheader:                                       ; preds = %8
  br i1 %12, label %.lr.ph55, label %.loopexit

.lr.ph55:                                         ; preds = %.preheader
  %17 = getelementptr inbounds nuw i8, ptr %2, i64 4
  %.not41 = icmp eq ptr %4, null
  %18 = getelementptr inbounds nuw i8, ptr %10, i64 4
  %19 = getelementptr inbounds nuw i8, ptr %4, i64 4
  %20 = getelementptr inbounds nuw i8, ptr %10, i64 8
  %.not42 = icmp eq i32 %7, 0
  %21 = select i1 %.not42, i32 38, i32 39
  %wide.trip.count76 = zext nneg i32 %6 to i64
  br i1 %.not41, label %.lr.ph55.split.us, label %.lr.ph55.split

.lr.ph55.split.us:                                ; preds = %.lr.ph55, %30
  %indvars.iv73 = phi i64 [ %indvars.iv.next74, %30 ], [ 0, %.lr.ph55 ]
  call void @llvm.lifetime.start.p0(i64 12, ptr nonnull %10) #11
  %22 = getelementptr inbounds nuw %struct.sockaddr_storage, ptr %5, i64 %indvars.iv73
  %23 = load i16, ptr %22, align 8, !tbaa !80
  %.not40.us = icmp eq i16 %23, 2
  br i1 %.not40.us, label %24, label %.split.us

24:                                               ; preds = %.lr.ph55.split.us
  %25 = load i32, ptr %17, align 4, !tbaa !71
  store i32 %25, ptr %10, align 4, !tbaa !81
  store i32 0, ptr %18, align 4, !tbaa !83
  %26 = getelementptr inbounds nuw i8, ptr %22, i64 4
  %27 = load i32, ptr %26, align 4, !tbaa !71
  store i32 %27, ptr %20, align 4, !tbaa !84
  %28 = call i32 @setsockopt(i32 noundef %1, i32 noundef 0, i32 noundef %21, ptr noundef nonnull %10, i32 noundef 12) #11
  %29 = icmp slt i32 %28, 0
  br i1 %29, label %.split57.us, label %30

30:                                               ; preds = %24
  call void @llvm.lifetime.end.p0(i64 12, ptr nonnull %10) #11
  %indvars.iv.next74 = add nuw nsw i64 %indvars.iv73, 1
  %exitcond77.not = icmp eq i64 %indvars.iv.next74, %wide.trip.count76
  br i1 %exitcond77.not, label %.loopexit, label %.lr.ph55.split.us, !llvm.loop !85

31:                                               ; preds = %.lr.ph, %42
  %indvars.iv = phi i64 [ 0, %.lr.ph ], [ %indvars.iv.next, %42 ]
  call void @llvm.lifetime.start.p0(i64 264, ptr nonnull %9) #11
  %32 = load i16, ptr %2, align 2, !tbaa !49
  %33 = icmp eq i16 %32, 2
  %34 = select i1 %33, i32 0, i32 41
  store i32 0, ptr %9, align 8, !tbaa !86
  call void @llvm.memcpy.p0.p0.i64(ptr nonnull align 8 %13, ptr nonnull align 2 %2, i64 %14, i1 false)
  %35 = getelementptr inbounds nuw %struct.sockaddr_storage, ptr %5, i64 %indvars.iv
  call void @llvm.memcpy.p0.p0.i64(ptr noundef nonnull align 8 dereferenceable(128) %15, ptr noundef nonnull align 8 dereferenceable(128) %35, i64 128, i1 false)
  %36 = call i32 @setsockopt(i32 noundef %1, i32 noundef %34, i32 noundef %16, ptr noundef nonnull %9, i32 noundef 264) #11
  %37 = icmp sgt i32 %36, -1
  br i1 %37, label %42, label %38

38:                                               ; preds = %31
  %.str.36..str.35 = select i1 %.not43, ptr @.str.36, ptr @.str.35
  call void @ff_log_net_error(ptr noundef %0, i32 noundef 16, ptr noundef nonnull %.str.36..str.35) #11
  %39 = tail call ptr @__errno_location() #13
  %40 = load i32, ptr %39, align 4, !tbaa !15
  %41 = sub nsw i32 0, %40
  call void @llvm.lifetime.end.p0(i64 264, ptr nonnull %9) #11
  br label %.loopexit

42:                                               ; preds = %31
  call void @llvm.lifetime.end.p0(i64 264, ptr nonnull %9) #11
  %indvars.iv.next = add nuw nsw i64 %indvars.iv, 1
  %exitcond.not = icmp eq i64 %indvars.iv.next, %wide.trip.count
  br i1 %exitcond.not, label %.loopexit, label %31, !llvm.loop !88

.lr.ph55.split:                                   ; preds = %.lr.ph55, %56
  %indvars.iv68 = phi i64 [ %indvars.iv.next69, %56 ], [ 0, %.lr.ph55 ]
  call void @llvm.lifetime.start.p0(i64 12, ptr nonnull %10) #11
  %43 = getelementptr inbounds nuw %struct.sockaddr_storage, ptr %5, i64 %indvars.iv68
  %44 = load i16, ptr %43, align 8, !tbaa !80
  %.not40 = icmp eq i16 %44, 2
  br i1 %.not40, label %46, label %.split.us

.split.us:                                        ; preds = %.lr.ph55.split, %.lr.ph55.split.us
  %.us-phi.in = phi i64 [ %indvars.iv73, %.lr.ph55.split.us ], [ %indvars.iv68, %.lr.ph55.split ]
  %.us-phi = trunc i64 %.us-phi.in to i32
  %45 = add nuw nsw i32 %.us-phi, 1
  call void (ptr, i32, ptr, ...) @av_log(ptr noundef %0, i32 noundef 16, ptr noundef nonnull @.str.37, i32 noundef %45) #11
  br label %.thread46

46:                                               ; preds = %.lr.ph55.split
  %47 = load i32, ptr %17, align 4, !tbaa !71
  store i32 %47, ptr %10, align 4, !tbaa !81
  %48 = load i32, ptr %19, align 4, !tbaa !15
  store i32 %48, ptr %18, align 4, !tbaa !15
  %49 = getelementptr inbounds nuw i8, ptr %43, i64 4
  %50 = load i32, ptr %49, align 4, !tbaa !71
  store i32 %50, ptr %20, align 4, !tbaa !84
  %51 = call i32 @setsockopt(i32 noundef %1, i32 noundef 0, i32 noundef %21, ptr noundef nonnull %10, i32 noundef 12) #11
  %52 = icmp slt i32 %51, 0
  br i1 %52, label %.split57.us, label %56

.split57.us:                                      ; preds = %46, %24
  %.str.39..str.38 = select i1 %.not42, ptr @.str.39, ptr @.str.38
  call void @ff_log_net_error(ptr noundef %0, i32 noundef 16, ptr noundef nonnull %.str.39..str.38) #11
  %53 = tail call ptr @__errno_location() #13
  %54 = load i32, ptr %53, align 4, !tbaa !15
  %55 = sub nsw i32 0, %54
  br label %.thread46

.thread46:                                        ; preds = %.split.us, %.split57.us
  %.5.ph = phi i32 [ %55, %.split57.us ], [ -22, %.split.us ]
  call void @llvm.lifetime.end.p0(i64 12, ptr nonnull %10) #11
  br label %.loopexit

56:                                               ; preds = %46
  call void @llvm.lifetime.end.p0(i64 12, ptr nonnull %10) #11
  %indvars.iv.next69 = add nuw nsw i64 %indvars.iv68, 1
  %exitcond72.not = icmp eq i64 %indvars.iv.next69, %wide.trip.count76
  br i1 %exitcond72.not, label %.loopexit, label %.lr.ph55.split, !llvm.loop !85

.loopexit:                                        ; preds = %42, %56, %30, %.preheader49, %.preheader, %.thread46, %38
  %.3 = phi i32 [ %41, %38 ], [ %.5.ph, %.thread46 ], [ 0, %.preheader ], [ 0, %.preheader49 ], [ 0, %30 ], [ 0, %56 ], [ 0, %42 ]
  ret i32 %.3
}